; Function Attrs: inlinehint mustprogress nounwind uwtable
define internal fastcc void @_ZN7testing8internal14ParamGeneratorIN11opencv_test3ocl12_GLOBAL__N_110ThreshTypeEED2Ev(ptr noundef nonnull readonly align 8 dereferenceable(16) %0) unnamed_addr #9 align 2 personality ptr @__gxx_personality_v0 {
  %2 = getelementptr inbounds nuw i8, ptr %0, i64 8
  invoke void @_ZN7testing8internal9MutexBase4LockEv(ptr noundef nonnull align 8 dereferenceable(56) @_ZN7testing8internal18g_linked_ptr_mutexE)
          to label %.noexc.i unwind label %18

.noexc.i:                                         ; preds = %1
  %3 = load ptr, ptr %2, align 8, !tbaa !92
  %4 = icmp eq ptr %3, %2
  br i1 %4, label %7, label %.preheader.i.i.i

.preheader.i.i.i:                                 ; preds = %.noexc.i, %.preheader.i.i.i
  %.0.i.i.i = phi ptr [ %5, %.preheader.i.i.i ], [ %3, %.noexc.i ]
  %5 = load ptr, ptr %.0.i.i.i, align 8, !tbaa !92
  %.not.i.i.i = icmp eq ptr %5, %2
  br i1 %.not.i.i.i, label %6, label %.preheader.i.i.i, !llvm.loop !253

6:                                                ; preds = %.preheader.i.i.i
  store ptr %3, ptr %.0.i.i.i, align 8, !tbaa !92
  br label %7

7:                                                ; preds = %6, %.noexc.i
  invoke void @_ZN7testing8internal9MutexBase6UnlockEv(ptr noundef nonnull align 8 dereferenceable(56) @_ZN7testing8internal18g_linked_ptr_mutexE)
          to label %_ZN7testing8internal19linked_ptr_internal6departEv.exit.i.i unwind label %8

8:                                                ; preds = %7
  %9 = landingpad { ptr, i32 }
          catch ptr null
  %10 = extractvalue { ptr, i32 } %9, 0
  tail call void @__clang_call_terminate(ptr %10) #34
  unreachable

_ZN7testing8internal19linked_ptr_internal6departEv.exit.i.i: ; preds = %7
  br i1 %4, label %11, label %_ZN7testing8internal10linked_ptrIKNS0_23ParamGeneratorInterfaceIN11opencv_test3ocl12_GLOBAL__N_110ThreshTypeEEEED2Ev.exit

11:                                               ; preds = %_ZN7testing8internal19linked_ptr_internal6departEv.exit.i.i
  %12 = load ptr, ptr %0, align 8, !tbaa !390
  %13 = icmp eq ptr %12, null
  br i1 %13, label %_ZN7testing8internal10linked_ptrIKNS0_23ParamGeneratorInterfaceIN11opencv_test3ocl12_GLOBAL__N_110ThreshTypeEEEED2Ev.exit, label %14

14:                                               ; preds = %11
  %15 = load ptr, ptr %12, align 8, !tbaa !19
  %16 = getelementptr inbounds nuw i8, ptr %15, i64 8
  %17 = load ptr, ptr %16, align 8
  tail call void %17(ptr noundef nonnull align 8 dereferenceable(8) %12) #31
  br label %_ZN7testing8internal10linked_ptrIKNS0_23ParamGeneratorInterfaceIN11opencv_test3ocl12_GLOBAL__N_110ThreshTypeEEEED2Ev.exit

18:                                               ; preds = %1
  %19 = landingpad { ptr, i32 }
          catch ptr null
  %20 = extractvalue { ptr, i32 } %19, 0
  tail call void @__clang_call_terminate(ptr %20) #34
  unreachable

_ZN7testing8internal10linked_ptrIKNS0_23ParamGeneratorInterfaceIN11opencv_test3ocl12_GLOBAL__N_110ThreshTypeEEEED2Ev.exit: ; preds = %_ZN7testing8internal19linked_ptr_internal6departEv.exit.i.i, %11, %14
  ret void
}